target datalayout = "e-m:e-p270:32:32-p271:32:32-p272:64:64-i64:64-i128:128-f80:128-n8:16:32:64-S128"
target triple = "x86_64-pc-linux-gnu"

%struct.URLContext = type { ptr, ptr, ptr, ptr, i32, i32, i32, i32, %struct.AVIOInterruptCB, i64, ptr, ptr, i32 }
%struct.AVIOInterruptCB = type { ptr, ptr }
%struct.HTTPContext = type { ptr, ptr, [8192 x i8], ptr, ptr, i32, i32, i64, i32, i64, i64, i64, ptr, ptr, %struct.HTTPAuthState, %struct.HTTPAuthState, ptr, ptr, ptr, ptr, ptr, ptr, ptr, i32, i32, i32, i32, i32, i32, ptr, i32, i32, i32, ptr, ptr, i32, i64, i64, ptr, ptr, ptr, i32, %struct.z_stream_s, ptr, ptr, i32, ptr, i32, i32, i32, i32, i32, ptr, i32, ptr, i32, i32, i32, i32, i32, i64, ptr, ptr, i64, i32, i32, i32, i32 }
%struct.HTTPAuthState = type { i32, [200 x i8], %struct.DigestParams, i32 }
%struct.DigestParams = type { [300 x i8], [10 x i8], [30 x i8], [300 x i8], [10 x i8], i32 }
%struct.z_stream_s = type { ptr, i32, i64, ptr, i32, i64, ptr, ptr, ptr, ptr, ptr, i32, i64, i64 }

; Function Attrs: nounwind uwtable
define void @ff_http_init_auth_state(ptr noundef %0, ptr noundef %1) #0 {
  %3 = alloca ptr, align 8
  %4 = alloca ptr, align 8
  store ptr %0, ptr %3, align 8, !tbaa !4
  store ptr %1, ptr %4, align 8, !tbaa !4
  %5 = load ptr, ptr %3, align 8, !tbaa !4
  %6 = getelementptr inbounds nuw %struct.URLContext, ptr %5, i32 0, i32 2
  %7 = load ptr, ptr %6, align 8, !tbaa !9
  %8 = getelementptr inbounds nuw %struct.HTTPContext, ptr %7, i32 0, i32 14
  %9 = load ptr, ptr %4, align 8, !tbaa !4
  %10 = getelementptr inbounds nuw %struct.URLContext, ptr %9, i32 0, i32 2
  %11 = load ptr, ptr %10, align 8, !tbaa !9
  %12 = getelementptr inbounds nuw %struct.HTTPContext, ptr %11, i32 0, i32 14
  call void @llvm.memcpy.p0.p0.i64(ptr align 8 %8, ptr align 8 %12, i64 864, i1 false)
  %13 = load ptr, ptr %3, align 8, !tbaa !4
  %14 = getelementptr inbounds nuw %struct.URLContext, ptr %13, i32 0, i32 2
  %15 = load ptr, ptr %14, align 8, !tbaa !9
  %16 = getelementptr inbounds nuw %struct.HTTPContext, ptr %15, i32 0, i32 15
  %17 = load ptr, ptr %4, align 8, !tbaa !4
  %18 = getelementptr inbounds nuw %struct.URLContext, ptr %17, i32 0, i32 2
  %19 = load ptr, ptr %18, align 8, !tbaa !9
  %20 = getelementptr inbounds nuw %struct.HTTPContext, ptr %19, i32 0, i32 15
  call void @llvm.memcpy.p0.p0.i64(ptr align 8 %16, ptr align 8 %20, i64 864, i1 false)
  ret void
}